target datalayout = "e-m:e-p270:32:32-p271:32:32-p272:64:64-i64:64-i128:128-f80:128-n8:16:32:64-S128"
target triple = "x86_64-pc-linux-gnu"

%struct.sockaddr_in6 = type { i16, i16, i32, %struct.in6_addr, i32 }
%struct.in6_addr = type { %union.anon }
%union.anon = type { [4 x i32] }

; Function Attrs: inlinehint nounwind uwtable
define internal zeroext i16 @__bswap_16(i16 noundef zeroext %0) #8 {
  %2 = alloca i16, align 2
  store i16 %0, ptr %2, align 2, !tbaa !30
  %3 = load i16, ptr %2, align 2, !tbaa !30
  %4 = zext i16 %3 to i32
  %5 = ashr i32 %4, 8
  %6 = and i32 %5, 255
  %7 = load i16, ptr %2, align 2, !tbaa !30
  %8 = zext i16 %7 to i32
  %9 = and i32 %8, 255
  %10 = shl i32 %9, 8
  %11 = or i32 %6, %10
  %12 = trunc i32 %11 to i16
  ret i16 %12
}

; Function Attrs: nounwind uwtable
define dso_local i32 @uv_ip6_addr(ptr noundef %0, i32 noundef %1, ptr noundef %2) #0 {
  %4 = alloca ptr, align 8
  %5 = alloca i32, align 4
  %6 = alloca ptr, align 8
  %7 = alloca [40 x i8], align 16
  %8 = alloca i64, align 8
  %9 = alloca ptr, align 8
  store ptr %0, ptr %4, align 8, !tbaa !4
  store i32 %1, ptr %5, align 4, !tbaa !15
  store ptr %2, ptr %6, align 8, !tbaa !31
  call void @llvm.lifetime.start.p0(i64 40, ptr %7) #13
  call void @llvm.lifetime.start.p0(i64 8, ptr %8) #13
  call void @llvm.lifetime.start.p0(i64 8, ptr %9) #13
  %10 = load ptr, ptr %6, align 8, !tbaa !31
  call void @llvm.memset.p0.i64(ptr align 4 %10, i8 0, i64 28, i1 false)
  %11 = load ptr, ptr %6, align 8, !tbaa !31
  %12 = getelementptr inbounds nuw %struct.sockaddr_in6, ptr %11, i32 0, i32 0
  store i16 10, ptr %12, align 4, !tbaa !33
  %13 = load i32, ptr %5, align 4, !tbaa !15
  %14 = trunc i32 %13 to i16
  %15 = call zeroext i16 @__bswap_16(i16 noundef zeroext %14)
  %16 = load ptr, ptr %6, align 8, !tbaa !31
  %17 = getelementptr inbounds nuw %struct.sockaddr_in6, ptr %16, i32 0, i32 1
  store i16 %15, ptr %17, align 2, !tbaa !36
  %18 = load ptr, ptr %4, align 8, !tbaa !4
  %19 = call ptr @strchr(ptr noundef %18, i32 noundef 37) #14
  store ptr %19, ptr %9, align 8, !tbaa !4
  %20 = load ptr, ptr %9, align 8, !tbaa !4
  %21 = icmp ne ptr %20, null
  br i1 %21, label %22, label %44

22:                                               ; preds = %3
  %23 = load ptr, ptr %9, align 8, !tbaa !4
  %24 = load ptr, ptr %4, align 8, !tbaa !4
  %25 = ptrtoint ptr %23 to i64
  %26 = ptrtoint ptr %24 to i64
  %27 = sub i64 %25, %26
  store i64 %27, ptr %8, align 8, !tbaa !9
  %28 = load i64, ptr %8, align 8, !tbaa !9
  %29 = icmp uge i64 %28, 40
  br i1 %29, label %30, label %31

30:                                               ; preds = %22
  store i64 39, ptr %8, align 8, !tbaa !9
  br label %31

31:                                               ; preds = %30, %22
  %32 = getelementptr inbounds [40 x i8], ptr %7, i64 0, i64 0
  %33 = load ptr, ptr %4, align 8, !tbaa !4
  %34 = load i64, ptr %8, align 8, !tbaa !9
  call void @llvm.memcpy.p0.p0.i64(ptr align 16 %32, ptr align 1 %33, i64 %34, i1 false)
  %35 = load i64, ptr %8, align 8, !tbaa !9
  %36 = getelementptr inbounds nuw [40 x i8], ptr %7, i64 0, i64 %35
  store i8 0, ptr %36, align 1, !tbaa !13
  %37 = getelementptr inbounds [40 x i8], ptr %7, i64 0, i64 0
  store ptr %37, ptr %4, align 8, !tbaa !4
  %38 = load ptr, ptr %9, align 8, !tbaa !4
  %39 = getelementptr inbounds nuw i8, ptr %38, i32 1
  store ptr %39, ptr %9, align 8, !tbaa !4
  %40 = load ptr, ptr %9, align 8, !tbaa !4
  %41 = call i32 @if_nametoindex(ptr noundef %40) #13
  %42 = load ptr, ptr %6, align 8, !tbaa !31
  %43 = getelementptr inbounds nuw %struct.sockaddr_in6, ptr %42, i32 0, i32 4
  store i32 %41, ptr %43, align 4, !tbaa !37
  br label %44

44:                                               ; preds = %31, %3
  %45 = load ptr, ptr %4, align 8, !tbaa !4
  %46 = load ptr, ptr %6, align 8, !tbaa !31
  %47 = getelementptr inbounds nuw %struct.sockaddr_in6, ptr %46, i32 0, i32 3
  %48 = call i32 @uv_inet_pton(i32 noundef 10, ptr noundef %45, ptr noundef %47)
  call void @llvm.lifetime.end.p0(i64 8, ptr %9) #13
  call void @llvm.lifetime.end.p0(i64 8, ptr %8) #13
  call void @llvm.lifetime.end.p0(i64 40, ptr %7) #13
  ret i32 %48
}